; Function Attrs: nofree norecurse nosync nounwind memory(argmem: readwrite) uwtable
define range(i32 -64, 2097152) i32 @GetCodepointPrevious(ptr noundef readonly captures(none) %0, ptr noundef writeonly captures(none) initializes((0, 4)) %1) local_unnamed_addr #27 {
  store i32 0, ptr %1, align 4
  br label %3

3:                                                ; preds = %3, %2
  %.0 = phi ptr [ %0, %2 ], [ %4, %3 ]
  %4 = getelementptr inbounds i8, ptr %.0, i64 -1
  %5 = load i8, ptr %4, align 1
  %6 = icmp slt i8 %5, -64
  br i1 %6, label %3, label %.critedge

.critedge:                                        ; preds = %3
  %7 = sext i8 %5 to i32
  %8 = and i32 %7, 248
  %9 = icmp eq i32 %8, 240
  br i1 %9, label %10, label %35

10:                                               ; preds = %.critedge
  %11 = load i8, ptr %.0, align 1
  %12 = sext i8 %11 to i32
  %13 = and i32 %12, 192
  %.not33.i = icmp eq i32 %13, 128
  br i1 %.not33.i, label %14, label %GetCodepointNext.exit.thread

14:                                               ; preds = %10
  %15 = getelementptr inbounds nuw i8, ptr %.0, i64 1
  %16 = load i8, ptr %15, align 1
  %17 = sext i8 %16 to i32
  %18 = and i32 %17, 192
  %.not34.i = icmp eq i32 %18, 128
  br i1 %.not34.i, label %19, label %GetCodepointNext.exit.thread

19:                                               ; preds = %14
  %20 = getelementptr inbounds nuw i8, ptr %.0, i64 2
  %21 = load i8, ptr %20, align 1
  %22 = zext i8 %21 to i32
  %23 = and i32 %22, 192
  %.not35.i = icmp eq i32 %23, 128
  br i1 %.not35.i, label %24, label %GetCodepointNext.exit.thread

24:                                               ; preds = %19
  %25 = shl nsw i32 %7, 18
  %26 = and i32 %25, 1835008
  %27 = shl nsw i32 %12, 12
  %28 = and i32 %27, 258048
  %29 = or disjoint i32 %28, %26
  %30 = shl nsw i32 %17, 6
  %31 = and i32 %30, 4032
  %32 = or disjoint i32 %29, %31
  %33 = and i32 %22, 63
  %34 = or disjoint i32 %32, %33
  br label %GetCodepointNext.exit

35:                                               ; preds = %.critedge
  %36 = and i32 %7, 240
  %37 = icmp eq i32 %36, 224
  br i1 %37, label %38, label %55

38:                                               ; preds = %35
  %39 = load i8, ptr %.0, align 1
  %40 = sext i8 %39 to i32
  %41 = and i32 %40, 192
  %.not31.i = icmp eq i32 %41, 128
  br i1 %.not31.i, label %42, label %GetCodepointNext.exit.thread

42:                                               ; preds = %38
  %43 = getelementptr inbounds nuw i8, ptr %.0, i64 1
  %44 = load i8, ptr %43, align 1
  %45 = zext i8 %44 to i32
  %46 = and i32 %45, 192
  %.not32.i = icmp eq i32 %46, 128
  br i1 %.not32.i, label %47, label %GetCodepointNext.exit.thread

47:                                               ; preds = %42
  %48 = shl nsw i32 %7, 12
  %49 = and i32 %48, 61440
  %50 = shl nsw i32 %40, 6
  %51 = and i32 %50, 4032
  %52 = or disjoint i32 %51, %49
  %53 = and i32 %45, 63
  %54 = or disjoint i32 %52, %53
  br label %GetCodepointNext.exit

55:                                               ; preds = %35
  %56 = and i32 %7, 224
  %57 = icmp eq i32 %56, 192
  br i1 %57, label %58, label %67

58:                                               ; preds = %55
  %59 = load i8, ptr %.0, align 1
  %60 = zext i8 %59 to i32
  %61 = and i32 %60, 192
  %.not.i = icmp eq i32 %61, 128
  br i1 %.not.i, label %62, label %GetCodepointNext.exit.thread

62:                                               ; preds = %58
  %63 = shl nsw i32 %7, 6
  %64 = and i32 %63, 1984
  %65 = and i32 %60, 63
  %66 = or disjoint i32 %65, %64
  br label %GetCodepointNext.exit

67:                                               ; preds = %55
  %68 = icmp sgt i8 %5, -1
  br i1 %68, label %GetCodepointNext.exit, label %GetCodepointNext.exit.thread

GetCodepointNext.exit:                            ; preds = %67, %24, %47, %62
  %.09 = phi i32 [ 4, %24 ], [ 2, %62 ], [ 3, %47 ], [ 1, %67 ]
  %.030.i = phi i32 [ %34, %24 ], [ %66, %62 ], [ %54, %47 ], [ %7, %67 ]
  %.not8 = icmp eq i32 %.030.i, 0
  br i1 %.not8, label %69, label %GetCodepointNext.exit.thread

GetCodepointNext.exit.thread:                     ; preds = %67, %58, %38, %42, %10, %14, %19, %GetCodepointNext.exit
  %.030.i14 = phi i32 [ %.030.i, %GetCodepointNext.exit ], [ 63, %19 ], [ 63, %14 ], [ 63, %10 ], [ 63, %42 ], [ 63, %38 ], [ 63, %58 ], [ 63, %67 ]
  %.0913 = phi i32 [ %.09, %GetCodepointNext.exit ], [ 1, %19 ], [ 1, %14 ], [ 1, %10 ], [ 1, %42 ], [ 1, %38 ], [ 1, %58 ], [ 1, %67 ]
  store i32 %.0913, ptr %1, align 4
  br label %69

69:                                               ; preds = %GetCodepointNext.exit.thread, %GetCodepointNext.exit
  %.030.i15 = phi i32 [ %.030.i14, %GetCodepointNext.exit.thread ], [ 0, %GetCodepointNext.exit ]
  ret i32 %.030.i15
}